; Function Attrs: nounwind uwtable
define internal void @php_chunked_dtor(ptr noundef readonly %0) #0 {
  %.not = icmp eq ptr %0, null
  br i1 %.not, label %10, label %2

2:                                                ; preds = %1
  %3 = getelementptr inbounds i8, ptr %0, i64 8
  %4 = load ptr, ptr %3, align 8
  %.not7 = icmp eq ptr %4, null
  br i1 %.not7, label %10, label %5

5:                                                ; preds = %2
  %6 = getelementptr inbounds i8, ptr %4, i64 12
  %7 = load i32, ptr %6, align 4
  %.not8 = icmp eq i32 %7, 0
  br i1 %.not8, label %9, label %8

8:                                                ; preds = %5
  tail call void @free(ptr noundef nonnull %4) #18
  br label %10

9:                                                ; preds = %5
  tail call void @_efree(ptr noundef nonnull %4) #18
  br label %10

10:                                               ; preds = %8, %9, %2, %1
  ret void
}